target datalayout = "e-m:e-p270:32:32-p271:32:32-p272:64:64-i64:64-i128:128-f80:128-n8:16:32:64-S128"
target triple = "x86_64-pc-linux-gnu"

@.str.14 = private unnamed_addr constant [2 x i8] c"\0A\00", align 1
@.str.31 = private unnamed_addr constant [23 x i8] c"    -clock <portname>\0A\00", align 1
@.str.32 = private unnamed_addr constant [39 x i8] c"        name of top-level clock input\0A\00", align 1
@.str.33 = private unnamed_addr constant [24 x i8] c"    -clockn <portname>\0A\00", align 1
@.str.34 = private unnamed_addr constant [58 x i8] c"        name of top-level clock input (inverse polarity)\0A\00", align 1
@.str.47 = private unnamed_addr constant [18 x i8] c"    -n <integer>\0A\00", align 1
@.str.48 = private unnamed_addr constant [58 x i8] c"        number of clock cycles to simulate (default: 20)\0A\00", align 1
@.str.55 = private unnamed_addr constant [19 x i8] c"    -r <filename>\0A\00", align 1
@.str.65 = private unnamed_addr constant [19 x i8] c"    -scope <name>\0A\00", align 1
@.str.66 = private unnamed_addr constant [39 x i8] c"        scope of simulation top model\0A\00", align 1
@.str.69 = private unnamed_addr constant [19 x i8] c"    -start <time>\0A\00", align 1
@.str.70 = private unnamed_addr constant [58 x i8] c"        start co-simulation in arbitary time (default 0)\0A\00", align 1
@.str.71 = private unnamed_addr constant [18 x i8] c"    -stop <time>\0A\00", align 1
@.str.72 = private unnamed_addr constant [59 x i8] c"        stop co-simulation in arbitary time (default END)\0A\00", align 1
@.str.347 = private unnamed_addr constant [34 x i8] c"    fst2tb [options] [top-level]\0A\00", align 1
@.str.348 = private unnamed_addr constant [76 x i8] c"This command generates testbench for the circuit using the given top-level\0A\00", align 1
@.str.349 = private unnamed_addr constant [41 x i8] c"module and simulus signal from FST file\0A\00", align 1
@.str.350 = private unnamed_addr constant [16 x i8] c"    -tb <name>\0A\00", align 1
@.str.351 = private unnamed_addr constant [35 x i8] c"        generated testbench name.\0A\00", align 1
@.str.352 = private unnamed_addr constant [62 x i8] c"        files <name>.v and <name>.txt are created as result.\0A\00", align 1
@.str.353 = private unnamed_addr constant [34 x i8] c"        read simulation FST file\0A\00", align 1

; Function Attrs: mustprogress uwtable
define internal void @_ZN12_GLOBAL__N_110Fst2TbPass4helpEv(ptr noundef nonnull align 8 dereferenceable(104) %0) unnamed_addr #4 align 2 {
  %2 = alloca ptr, align 8
  store ptr %0, ptr %2, align 8
  call void (ptr, ...) @_ZN5Yosys3logEPKcz(ptr noundef @.str.14)
  call void (ptr, ...) @_ZN5Yosys3logEPKcz(ptr noundef @.str.347)
  call void (ptr, ...) @_ZN5Yosys3logEPKcz(ptr noundef @.str.14)
  call void (ptr, ...) @_ZN5Yosys3logEPKcz(ptr noundef @.str.348)
  call void (ptr, ...) @_ZN5Yosys3logEPKcz(ptr noundef @.str.349)
  call void (ptr, ...) @_ZN5Yosys3logEPKcz(ptr noundef @.str.14)
  call void (ptr, ...) @_ZN5Yosys3logEPKcz(ptr noundef @.str.350)
  call void (ptr, ...) @_ZN5Yosys3logEPKcz(ptr noundef @.str.351)
  call void (ptr, ...) @_ZN5Yosys3logEPKcz(ptr noundef @.str.352)
  call void (ptr, ...) @_ZN5Yosys3logEPKcz(ptr noundef @.str.14)
  call void (ptr, ...) @_ZN5Yosys3logEPKcz(ptr noundef @.str.55)
  call void (ptr, ...) @_ZN5Yosys3logEPKcz(ptr noundef @.str.353)
  call void (ptr, ...) @_ZN5Yosys3logEPKcz(ptr noundef @.str.14)
  call void (ptr, ...) @_ZN5Yosys3logEPKcz(ptr noundef @.str.31)
  call void (ptr, ...) @_ZN5Yosys3logEPKcz(ptr noundef @.str.32)
  call void (ptr, ...) @_ZN5Yosys3logEPKcz(ptr noundef @.str.14)
  call void (ptr, ...) @_ZN5Yosys3logEPKcz(ptr noundef @.str.33)
  call void (ptr, ...) @_ZN5Yosys3logEPKcz(ptr noundef @.str.34)
  call void (ptr, ...) @_ZN5Yosys3logEPKcz(ptr noundef @.str.14)
  call void (ptr, ...) @_ZN5Yosys3logEPKcz(ptr noundef @.str.65)
  call void (ptr, ...) @_ZN5Yosys3logEPKcz(ptr noundef @.str.66)
  call void (ptr, ...) @_ZN5Yosys3logEPKcz(ptr noundef @.str.14)
  call void (ptr, ...) @_ZN5Yosys3logEPKcz(ptr noundef @.str.69)
  call void (ptr, ...) @_ZN5Yosys3logEPKcz(ptr noundef @.str.70)
  call void (ptr, ...) @_ZN5Yosys3logEPKcz(ptr noundef @.str.14)
  call void (ptr, ...) @_ZN5Yosys3logEPKcz(ptr noundef @.str.71)
  call void (ptr, ...) @_ZN5Yosys3logEPKcz(ptr noundef @.str.72)
  call void (ptr, ...) @_ZN5Yosys3logEPKcz(ptr noundef @.str.14)
  call void (ptr, ...) @_ZN5Yosys3logEPKcz(ptr noundef @.str.47)
  call void (ptr, ...) @_ZN5Yosys3logEPKcz(ptr noundef @.str.48)
  call void (ptr, ...) @_ZN5Yosys3logEPKcz(ptr noundef @.str.14)
  ret void
}